target datalayout = "e-m:e-p270:32:32-p271:32:32-p272:64:64-i64:64-i128:128-f80:128-n8:16:32:64-S128"
target triple = "x86_64-pc-linux-gnu"

%"class.grpc_event_engine::experimental::EventEngine::ResolvedAddress" = type { [128 x i8], i32 }
%struct.sockaddr_in = type { i16, i16, %struct.in_addr, [8 x i8] }
%struct.in_addr = type { i32 }
%"class.absl::lts_20240722::log_internal::Voidify" = type { i8 }
%"class.absl::lts_20240722::log_internal::LogMessageFatal" = type { %"class.absl::lts_20240722::log_internal::LogMessage" }
%"class.absl::lts_20240722::log_internal::LogMessage" = type { %"class.absl::lts_20240722::base_internal::ErrnoSaver", %"class.std::unique_ptr" }
%"class.absl::lts_20240722::base_internal::ErrnoSaver" = type { i32 }
%"class.std::unique_ptr" = type { %"struct.std::__uniq_ptr_data" }
%"struct.std::__uniq_ptr_data" = type { %"class.std::__uniq_ptr_impl" }
%"class.std::__uniq_ptr_impl" = type { %"class.std::tuple" }
%"class.std::tuple" = type { %"struct.std::_Tuple_impl" }
%"struct.std::_Tuple_impl" = type { %"struct.std::_Head_base.1" }
%"struct.std::_Head_base.1" = type { ptr }
%"class.std::basic_string_view" = type { i64, ptr }
%"class.std::__cxx11::basic_string" = type { %"struct.std::__cxx11::basic_string<char>::_Alloc_hider", i64, %union.anon.2 }
%"struct.std::__cxx11::basic_string<char>::_Alloc_hider" = type { ptr }
%union.anon.2 = type { i64, [8 x i8] }

@.str = private unnamed_addr constant [133 x i8] c"generated/home/dtcxzyw/WorkSpace/Projects/compilers/llvm-opt-benchmark/bench/grpc/grpc/src/core/lib/event_engine/tcp_socket_utils.cc\00", align 1
@.str.2 = private unnamed_addr constant [10 x i8] c"port >= 0\00", align 1
@.str.3 = private unnamed_addr constant [13 x i8] c"port < 65536\00", align 1

; Function Attrs: mustprogress nounwind uwtable
define available_externally noundef ptr @_ZNKSt7__cxx1112basic_stringIcSt11char_traitsIcESaIcEE7_M_dataEv(ptr noundef nonnull align 8 dereferenceable(32) %0) #10 align 2 {
  %2 = alloca ptr, align 8
  store ptr %0, ptr %2, align 8, !tbaa !41
  %3 = load ptr, ptr %2, align 8
  %4 = getelementptr inbounds nuw %"class.std::__cxx11::basic_string", ptr %3, i32 0, i32 0
  %5 = getelementptr inbounds nuw %"struct.std::__cxx11::basic_string<char>::_Alloc_hider", ptr %4, i32 0, i32 0
  %6 = load ptr, ptr %5, align 8, !tbaa !117
  ret ptr %6
}

; Function Attrs: inlinehint mustprogress uwtable
define linkonce_odr noundef ptr @_ZN4absl12lts_2024072212log_internal12Check_LTImplIiiEEPNSt7__cxx1112basic_stringIcSt11char_traitsIcESaIcEEERKT_RKT0_PKc(ptr noundef nonnull align 4 dereferenceable(4) %0, ptr noundef nonnull align 4 dereferenceable(4) %1, ptr noundef %2) #13 comdat {
  %4 = alloca ptr, align 8
  %5 = alloca ptr, align 8
  %6 = alloca ptr, align 8
  store ptr %0, ptr %4, align 8, !tbaa !51
  store ptr %1, ptr %5, align 8, !tbaa !51
  store ptr %2, ptr %6, align 8, !tbaa !35
  %7 = load ptr, ptr %4, align 8, !tbaa !51
  %8 = load i32, ptr %7, align 4, !tbaa !27
  %9 = load ptr, ptr %5, align 8, !tbaa !51
  %10 = load i32, ptr %9, align 4, !tbaa !27
  %11 = icmp slt i32 %8, %10
  %12 = zext i1 %11 to i64
  %13 = call i64 @llvm.expect.i64(i64 %12, i64 1)
  %14 = icmp ne i64 %13, 0
  br i1 %14, label %15, label %16

15:                                               ; preds = %3
  br label %25

16:                                               ; preds = %3
  %17 = load ptr, ptr %4, align 8, !tbaa !51
  %18 = load i32, ptr %17, align 4, !tbaa !27
  %19 = sext i32 %18 to i64
  %20 = load ptr, ptr %5, align 8, !tbaa !51
  %21 = load i32, ptr %20, align 4, !tbaa !27
  %22 = sext i32 %21 to i64
  %23 = load ptr, ptr %6, align 8, !tbaa !35
  %24 = call noundef nonnull ptr @_ZN4absl12lts_2024072212log_internal17MakeCheckOpStringIllEEPNSt7__cxx1112basic_stringIcSt11char_traitsIcESaIcEEET_T0_PKc(i64 noundef %19, i64 noundef %22, ptr noundef %23)
  br label %25

25:                                               ; preds = %16, %15
  %26 = phi ptr [ null, %15 ], [ %24, %16 ]
  ret ptr %26
}

; Function Attrs: mustprogress nounwind uwtable
define linkonce_odr void @_ZNSt17basic_string_viewIcSt11char_traitsIcEEC2EPKcm(ptr noundef nonnull align 8 dereferenceable(16) %0, ptr noundef %1, i64 noundef %2) unnamed_addr #10 comdat align 2 {
  %4 = alloca ptr, align 8
  %5 = alloca ptr, align 8
  %6 = alloca i64, align 8
  store ptr %0, ptr %4, align 8, !tbaa !33
  store ptr %1, ptr %5, align 8, !tbaa !35
  store i64 %2, ptr %6, align 8, !tbaa !57
  %7 = load ptr, ptr %4, align 8
  %8 = getelementptr inbounds nuw %"class.std::basic_string_view", ptr %7, i32 0, i32 0
  %9 = load i64, ptr %6, align 8, !tbaa !57
  store i64 %9, ptr %8, align 8, !tbaa !37
  %10 = getelementptr inbounds nuw %"class.std::basic_string_view", ptr %7, i32 0, i32 1
  %11 = load ptr, ptr %5, align 8, !tbaa !35
  store ptr %11, ptr %10, align 8, !tbaa !40
  ret void
}

; Function Attrs: mustprogress nounwind uwtable
define available_externally noundef i64 @_ZNKSt7__cxx1112basic_stringIcSt11char_traitsIcESaIcEE4sizeEv(ptr noundef nonnull align 8 dereferenceable(32) %0) #10 align 2 {
  %2 = alloca ptr, align 8
  store ptr %0, ptr %2, align 8, !tbaa !41
  %3 = load ptr, ptr %2, align 8
  %4 = getelementptr inbounds nuw %"class.std::__cxx11::basic_string", ptr %3, i32 0, i32 1
  %5 = load i64, ptr %4, align 8, !tbaa !124
  ret i64 %5
}

; Function Attrs: mustprogress nounwind uwtable
define available_externally noundef ptr @_ZNKSt7__cxx1112basic_stringIcSt11char_traitsIcESaIcEE4dataEv(ptr noundef nonnull align 8 dereferenceable(32) %0) #10 align 2 {
  %2 = alloca ptr, align 8
  store ptr %0, ptr %2, align 8, !tbaa !41
  %3 = load ptr, ptr %2, align 8
  %4 = call noundef ptr @_ZNKSt7__cxx1112basic_stringIcSt11char_traitsIcESaIcEE7_M_dataEv(ptr noundef nonnull align 8 dereferenceable(32) %3)
  ret ptr %4
}

; Function Attrs: inlinehint mustprogress uwtable
define linkonce_odr noundef ptr @_ZN4absl12lts_2024072212log_internal12Check_GEImplIiiEEPNSt7__cxx1112basic_stringIcSt11char_traitsIcESaIcEEERKT_RKT0_PKc(ptr noundef nonnull align 4 dereferenceable(4) %0, ptr noundef nonnull align 4 dereferenceable(4) %1, ptr noundef %2) #13 comdat {
  %4 = alloca ptr, align 8
  %5 = alloca ptr, align 8
  %6 = alloca ptr, align 8
  store ptr %0, ptr %4, align 8, !tbaa !51
  store ptr %1, ptr %5, align 8, !tbaa !51
  store ptr %2, ptr %6, align 8, !tbaa !35
  %7 = load ptr, ptr %4, align 8, !tbaa !51
  %8 = load i32, ptr %7, align 4, !tbaa !27
  %9 = load ptr, ptr %5, align 8, !tbaa !51
  %10 = load i32, ptr %9, align 4, !tbaa !27
  %11 = icmp sge i32 %8, %10
  %12 = zext i1 %11 to i64
  %13 = call i64 @llvm.expect.i64(i64 %12, i64 1)
  %14 = icmp ne i64 %13, 0
  br i1 %14, label %15, label %16

15:                                               ; preds = %3
  br label %25

16:                                               ; preds = %3
  %17 = load ptr, ptr %4, align 8, !tbaa !51
  %18 = load i32, ptr %17, align 4, !tbaa !27
  %19 = sext i32 %18 to i64
  %20 = load ptr, ptr %5, align 8, !tbaa !51
  %21 = load i32, ptr %20, align 4, !tbaa !27
  %22 = sext i32 %21 to i64
  %23 = load ptr, ptr %6, align 8, !tbaa !35
  %24 = call noundef nonnull ptr @_ZN4absl12lts_2024072212log_internal17MakeCheckOpStringIllEEPNSt7__cxx1112basic_stringIcSt11char_traitsIcESaIcEEET_T0_PKc(i64 noundef %19, i64 noundef %22, ptr noundef %23)
  br label %25

25:                                               ; preds = %16, %15
  %26 = phi ptr [ null, %15 ], [ %24, %16 ]
  ret ptr %26
}

; Function Attrs: inlinehint mustprogress nounwind uwtable
define internal noundef zeroext i16 @_ZL10__bswap_16t(i16 noundef zeroext %0) #14 {
  %2 = alloca i16, align 2
  store i16 %0, ptr %2, align 2, !tbaa !45
  %3 = load i16, ptr %2, align 2, !tbaa !45
  %4 = zext i16 %3 to i32
  %5 = ashr i32 %4, 8
  %6 = and i32 %5, 255
  %7 = load i16, ptr %2, align 2, !tbaa !45
  %8 = zext i16 %7 to i32
  %9 = and i32 %8, 255
  %10 = shl i32 %9, 8
  %11 = or i32 %6, %10
  %12 = trunc i32 %11 to i16
  ret i16 %12
}

; Function Attrs: inlinehint mustprogress uwtable
define linkonce_odr noundef ptr @_ZN4absl12lts_2024072212log_internal12Check_LTImplB5cxx11EiiPKc(i32 noundef %0, i32 noundef %1, ptr noundef %2) #13 comdat {
  %4 = alloca i32, align 4
  %5 = alloca i32, align 4
  %6 = alloca ptr, align 8
  store i32 %0, ptr %4, align 4, !tbaa !27
  store i32 %1, ptr %5, align 4, !tbaa !27
  store ptr %2, ptr %6, align 8, !tbaa !35
  %7 = load ptr, ptr %6, align 8, !tbaa !35
  %8 = call noundef ptr @_ZN4absl12lts_2024072212log_internal12Check_LTImplIiiEEPNSt7__cxx1112basic_stringIcSt11char_traitsIcESaIcEEERKT_RKT0_PKc(ptr noundef nonnull align 4 dereferenceable(4) %4, ptr noundef nonnull align 4 dereferenceable(4) %5, ptr noundef %7)
  ret ptr %8
}

; Function Attrs: mustprogress nounwind uwtable
define linkonce_odr void @_ZNKO4absl12lts_2024072212log_internal7VoidifyaaINS1_10LogMessageEEEvRKT_(ptr noundef nonnull align 1 dereferenceable(1) %0, ptr noundef nonnull align 8 dereferenceable(16) %1) #10 comdat align 2 {
  %3 = alloca ptr, align 8
  %4 = alloca ptr, align 8
  store ptr %0, ptr %3, align 8, !tbaa !29
  store ptr %1, ptr %4, align 8, !tbaa !31
  ret void
}

; Function Attrs: mustprogress nounwind uwtable
define linkonce_odr noundef nonnull align 8 dereferenceable(16) ptr @_ZN4absl12lts_2024072212log_internal10LogMessage14InternalStreamEv(ptr noundef nonnull align 8 dereferenceable(16) %0) #10 comdat align 2 {
  %2 = alloca ptr, align 8
  store ptr %0, ptr %2, align 8, !tbaa !31
  %3 = load ptr, ptr %2, align 8
  ret ptr %3
}

; Function Attrs: mustprogress nounwind uwtable
define available_externally { i64, ptr } @_ZNKSt7__cxx1112basic_stringIcSt11char_traitsIcESaIcEEcvSt17basic_string_viewIcS2_EEv(ptr noundef nonnull align 8 dereferenceable(32) %0) #10 align 2 {
  %2 = alloca %"class.std::basic_string_view", align 8
  %3 = alloca ptr, align 8
  store ptr %0, ptr %3, align 8, !tbaa !41
  %4 = load ptr, ptr %3, align 8
  %5 = call noundef ptr @_ZNKSt7__cxx1112basic_stringIcSt11char_traitsIcESaIcEE4dataEv(ptr noundef nonnull align 8 dereferenceable(32) %4) #3
  %6 = call noundef i64 @_ZNKSt7__cxx1112basic_stringIcSt11char_traitsIcESaIcEE4sizeEv(ptr noundef nonnull align 8 dereferenceable(32) %4) #3
  call void @_ZNSt17basic_string_viewIcSt11char_traitsIcEEC2EPKcm(ptr noundef nonnull align 8 dereferenceable(16) %2, ptr noundef %5, i64 noundef %6) #3
  %7 = load { i64, ptr }, ptr %2, align 8
  ret { i64, ptr } %7
}

; Function Attrs: inlinehint mustprogress uwtable
define linkonce_odr noundef ptr @_ZN4absl12lts_2024072212log_internal12Check_GEImplB5cxx11EiiPKc(i32 noundef %0, i32 noundef %1, ptr noundef %2) #13 comdat {
  %4 = alloca i32, align 4
  %5 = alloca i32, align 4
  %6 = alloca ptr, align 8
  store i32 %0, ptr %4, align 4, !tbaa !27
  store i32 %1, ptr %5, align 4, !tbaa !27
  store ptr %2, ptr %6, align 8, !tbaa !35
  %7 = load ptr, ptr %6, align 8, !tbaa !35
  %8 = call noundef ptr @_ZN4absl12lts_2024072212log_internal12Check_GEImplIiiEEPNSt7__cxx1112basic_stringIcSt11char_traitsIcESaIcEEERKT_RKT0_PKc(ptr noundef nonnull align 4 dereferenceable(4) %4, ptr noundef nonnull align 4 dereferenceable(4) %5, ptr noundef %7)
  ret ptr %8
}

; Function Attrs: inlinehint mustprogress nounwind uwtable
define linkonce_odr noundef i32 @_ZN4absl12lts_2024072212log_internal21GetReferenceableValueEi(i32 noundef %0) #14 comdat {
  %2 = alloca i32, align 4
  store i32 %0, ptr %2, align 4, !tbaa !27
  %3 = load i32, ptr %2, align 4, !tbaa !27
  ret i32 %3
}

; Function Attrs: mustprogress nounwind uwtable
define linkonce_odr void @_ZN17grpc_event_engine12experimental11EventEngine15ResolvedAddressC2Ev(ptr noundef nonnull align 4 dereferenceable(132) %0) unnamed_addr #10 comdat align 2 {
  %2 = alloca ptr, align 8
  store ptr %0, ptr %2, align 8, !tbaa !3
  %3 = load ptr, ptr %2, align 8
  %4 = getelementptr inbounds nuw %"class.grpc_event_engine::experimental::EventEngine::ResolvedAddress", ptr %3, i32 0, i32 0
  %5 = getelementptr inbounds i8, ptr %4, i64 128
  br label %6

6:                                                ; preds = %6, %1
  %7 = phi ptr [ %4, %1 ], [ %8, %6 ]
  store i8 0, ptr %7, align 1, !tbaa !26
  %8 = getelementptr inbounds i8, ptr %7, i64 1
  %9 = icmp eq ptr %8, %5
  br i1 %9, label %10, label %6

10:                                               ; preds = %6
  %11 = getelementptr inbounds nuw %"class.grpc_event_engine::experimental::EventEngine::ResolvedAddress", ptr %3, i32 0, i32 1
  store i32 0, ptr %11, align 4, !tbaa !43
  ret void
}

; Function Attrs: mustprogress uwtable
define void @_ZN17grpc_event_engine12experimental24ResolvedAddressMakeWild4Ei(ptr dead_on_unwind noalias writable sret(%"class.grpc_event_engine::experimental::EventEngine::ResolvedAddress") align 4 %0, i32 noundef %1) #4 personality ptr @__gxx_personality_v0 {
  %3 = alloca i32, align 4
  %4 = alloca %"class.grpc_event_engine::experimental::EventEngine::ResolvedAddress", align 4
  %5 = alloca ptr, align 8
  %6 = alloca ptr, align 8
  %7 = alloca %"class.absl::lts_20240722::log_internal::Voidify", align 1
  %8 = alloca %"class.absl::lts_20240722::log_internal::LogMessageFatal", align 8
  %9 = alloca %"class.std::basic_string_view", align 8
  %10 = alloca ptr, align 8
  %11 = alloca i32, align 4
  %12 = alloca ptr, align 8
  %13 = alloca %"class.absl::lts_20240722::log_internal::Voidify", align 1
  %14 = alloca %"class.absl::lts_20240722::log_internal::LogMessageFatal", align 8
  %15 = alloca %"class.std::basic_string_view", align 8
  store i32 %1, ptr %3, align 4, !tbaa !27
  call void @llvm.lifetime.start.p0(i64 132, ptr %4) #3
  call void @_ZN17grpc_event_engine12experimental11EventEngine15ResolvedAddressC2Ev(ptr noundef nonnull align 4 dereferenceable(132) %4) #3
  call void @llvm.lifetime.start.p0(i64 8, ptr %5) #3
  %16 = call noundef ptr @_ZNK17grpc_event_engine12experimental11EventEngine15ResolvedAddress7addressEv(ptr noundef nonnull align 4 dereferenceable(132) %4)
  store ptr %16, ptr %5, align 8, !tbaa !15
  br label %17

17:                                               ; preds = %2
  call void @llvm.lifetime.start.p0(i64 8, ptr %6) #3
  %18 = load i32, ptr %3, align 4, !tbaa !27
  %19 = call noundef i32 @_ZN4absl12lts_2024072212log_internal21GetReferenceableValueEi(i32 noundef %18)
  %20 = call noundef i32 @_ZN4absl12lts_2024072212log_internal21GetReferenceableValueEi(i32 noundef 0)
  %21 = call noundef ptr @_ZN4absl12lts_2024072212log_internal12Check_GEImplB5cxx11EiiPKc(i32 noundef %19, i32 noundef %20, ptr noundef @.str.2)
  store ptr %21, ptr %6, align 8, !tbaa !41
  %22 = load ptr, ptr %6, align 8, !tbaa !41
  %23 = icmp ne ptr %22, null
  br i1 %23, label %25, label %24

24:                                               ; preds = %17
  call void @llvm.lifetime.end.p0(i64 8, ptr %6) #3
  br label %44

25:                                               ; preds = %17
  call void @llvm.lifetime.start.p0(i64 1, ptr %7) #3
  call void @llvm.lifetime.start.p0(i64 16, ptr %8) #3
  %26 = load ptr, ptr %6, align 8, !tbaa !41
  %27 = call { i64, ptr } @_ZNKSt7__cxx1112basic_stringIcSt11char_traitsIcESaIcEEcvSt17basic_string_viewIcS2_EEv(ptr noundef nonnull align 8 dereferenceable(32) %26) #3
  %28 = getelementptr inbounds nuw { i64, ptr }, ptr %9, i32 0, i32 0
  %29 = extractvalue { i64, ptr } %27, 0
  store i64 %29, ptr %28, align 8
  %30 = getelementptr inbounds nuw { i64, ptr }, ptr %9, i32 0, i32 1
  %31 = extractvalue { i64, ptr } %27, 1
  store ptr %31, ptr %30, align 8
  %32 = getelementptr inbounds nuw { i64, ptr }, ptr %9, i32 0, i32 0
  %33 = load i64, ptr %32, align 8
  %34 = getelementptr inbounds nuw { i64, ptr }, ptr %9, i32 0, i32 1
  %35 = load ptr, ptr %34, align 8
  call void @_ZN4absl12lts_2024072212log_internal15LogMessageFatalC1EPKciSt17basic_string_viewIcSt11char_traitsIcEE(ptr noundef nonnull align 8 dereferenceable(16) %8, ptr noundef @.str, i32 noundef 254, i64 %33, ptr %35) #23
  %36 = invoke noundef nonnull align 8 dereferenceable(16) ptr @_ZN4absl12lts_2024072212log_internal10LogMessage14InternalStreamEv(ptr noundef nonnull align 8 dereferenceable(16) %8)
          to label %37 unwind label %39

37:                                               ; preds = %25
  invoke void @_ZNKO4absl12lts_2024072212log_internal7VoidifyaaINS1_10LogMessageEEEvRKT_(ptr noundef nonnull align 1 dereferenceable(1) %7, ptr noundef nonnull align 8 dereferenceable(16) %36)
          to label %38 unwind label %39

38:                                               ; preds = %37
  call void @_ZN4absl12lts_2024072212log_internal15LogMessageFatalD1Ev(ptr noundef nonnull align 8 dereferenceable(16) %8) #24
  unreachable

39:                                               ; preds = %37, %25
  %40 = landingpad { ptr, i32 }
          cleanup
  %41 = extractvalue { ptr, i32 } %40, 0
  store ptr %41, ptr %10, align 8
  %42 = extractvalue { ptr, i32 } %40, 1
  store i32 %42, ptr %11, align 4
  call void @_ZN4absl12lts_2024072212log_internal15LogMessageFatalD1Ev(ptr noundef nonnull align 8 dereferenceable(16) %8) #24
  unreachable

43:                                               ; No predecessors!
  call void @llvm.lifetime.end.p0(i64 16, ptr %8) #3
  call void @llvm.lifetime.end.p0(i64 1, ptr %7) #3
  call void @llvm.lifetime.end.p0(i64 8, ptr %6) #3
  br label %82

44:                                               ; preds = %24
  br label %45

45:                                               ; preds = %44
  call void @llvm.lifetime.start.p0(i64 8, ptr %12) #3
  %46 = load i32, ptr %3, align 4, !tbaa !27
  %47 = call noundef i32 @_ZN4absl12lts_2024072212log_internal21GetReferenceableValueEi(i32 noundef %46)
  %48 = call noundef i32 @_ZN4absl12lts_2024072212log_internal21GetReferenceableValueEi(i32 noundef 65536)
  %49 = call noundef ptr @_ZN4absl12lts_2024072212log_internal12Check_LTImplB5cxx11EiiPKc(i32 noundef %47, i32 noundef %48, ptr noundef @.str.3)
  store ptr %49, ptr %12, align 8, !tbaa !41
  %50 = load ptr, ptr %12, align 8, !tbaa !41
  %51 = icmp ne ptr %50, null
  br i1 %51, label %53, label %52

52:                                               ; preds = %45
  call void @llvm.lifetime.end.p0(i64 8, ptr %12) #3
  br label %72

53:                                               ; preds = %45
  call void @llvm.lifetime.start.p0(i64 1, ptr %13) #3
  call void @llvm.lifetime.start.p0(i64 16, ptr %14) #3
  %54 = load ptr, ptr %12, align 8, !tbaa !41
  %55 = call { i64, ptr } @_ZNKSt7__cxx1112basic_stringIcSt11char_traitsIcESaIcEEcvSt17basic_string_viewIcS2_EEv(ptr noundef nonnull align 8 dereferenceable(32) %54) #3
  %56 = getelementptr inbounds nuw { i64, ptr }, ptr %15, i32 0, i32 0
  %57 = extractvalue { i64, ptr } %55, 0
  store i64 %57, ptr %56, align 8
  %58 = getelementptr inbounds nuw { i64, ptr }, ptr %15, i32 0, i32 1
  %59 = extractvalue { i64, ptr } %55, 1
  store ptr %59, ptr %58, align 8
  %60 = getelementptr inbounds nuw { i64, ptr }, ptr %15, i32 0, i32 0
  %61 = load i64, ptr %60, align 8
  %62 = getelementptr inbounds nuw { i64, ptr }, ptr %15, i32 0, i32 1
  %63 = load ptr, ptr %62, align 8
  call void @_ZN4absl12lts_2024072212log_internal15LogMessageFatalC1EPKciSt17basic_string_viewIcSt11char_traitsIcEE(ptr noundef nonnull align 8 dereferenceable(16) %14, ptr noundef @.str, i32 noundef 255, i64 %61, ptr %63) #23
  %64 = invoke noundef nonnull align 8 dereferenceable(16) ptr @_ZN4absl12lts_2024072212log_internal10LogMessage14InternalStreamEv(ptr noundef nonnull align 8 dereferenceable(16) %14)
          to label %65 unwind label %67

65:                                               ; preds = %53
  invoke void @_ZNKO4absl12lts_2024072212log_internal7VoidifyaaINS1_10LogMessageEEEvRKT_(ptr noundef nonnull align 1 dereferenceable(1) %13, ptr noundef nonnull align 8 dereferenceable(16) %64)
          to label %66 unwind label %67

66:                                               ; preds = %65
  call void @_ZN4absl12lts_2024072212log_internal15LogMessageFatalD1Ev(ptr noundef nonnull align 8 dereferenceable(16) %14) #24
  unreachable

67:                                               ; preds = %65, %53
  %68 = landingpad { ptr, i32 }
          cleanup
  %69 = extractvalue { ptr, i32 } %68, 0
  store ptr %69, ptr %10, align 8
  %70 = extractvalue { ptr, i32 } %68, 1
  store i32 %70, ptr %11, align 4
  call void @_ZN4absl12lts_2024072212log_internal15LogMessageFatalD1Ev(ptr noundef nonnull align 8 dereferenceable(16) %14) #24
  unreachable

71:                                               ; No predecessors!
  call void @llvm.lifetime.end.p0(i64 16, ptr %14) #3
  call void @llvm.lifetime.end.p0(i64 1, ptr %13) #3
  call void @llvm.lifetime.end.p0(i64 8, ptr %12) #3
  br label %82

72:                                               ; preds = %52
  %73 = load ptr, ptr %5, align 8, !tbaa !15
  call void @llvm.memset.p0.i64(ptr align 4 %73, i8 0, i64 16, i1 false)
  %74 = load ptr, ptr %5, align 8, !tbaa !15
  %75 = getelementptr inbounds nuw %struct.sockaddr_in, ptr %74, i32 0, i32 0
  store i16 2, ptr %75, align 4, !tbaa !17
  %76 = load i32, ptr %3, align 4, !tbaa !27
  %77 = trunc i32 %76 to i16
  %78 = call noundef zeroext i16 @_ZL10__bswap_16t(i16 noundef zeroext %77)
  %79 = load ptr, ptr %5, align 8, !tbaa !15
  %80 = getelementptr inbounds nuw %struct.sockaddr_in, ptr %79, i32 0, i32 1
  store i16 %78, ptr %80, align 2, !tbaa !24
  %81 = load ptr, ptr %5, align 8, !tbaa !15
  call void @_ZN17grpc_event_engine12experimental11EventEngine15ResolvedAddressC1EPK8sockaddrj(ptr noundef nonnull align 4 dereferenceable(132) %0, ptr noundef %81, i32 noundef 16)
  call void @llvm.lifetime.end.p0(i64 8, ptr %5) #3
  call void @llvm.lifetime.end.p0(i64 132, ptr %4) #3
  ret void

82:                                               ; preds = %71, %43
  call void @llvm.lifetime.end.p0(i64 8, ptr %5) #3
  call void @llvm.lifetime.end.p0(i64 132, ptr %4) #3
  br label %83

83:                                               ; preds = %82
  %84 = load ptr, ptr %10, align 8
  %85 = load i32, ptr %11, align 4
  %86 = insertvalue { ptr, i32 } poison, ptr %84, 0
  %87 = insertvalue { ptr, i32 } %86, i32 %85, 1
  resume { ptr, i32 } %87
}