; Function Attrs: mustprogress uwtable
define void @_ZN17grpc_event_engine12experimental24ResolvedAddressMakeWild4Ei(ptr dead_on_unwind noalias writable sret(%"class.grpc_event_engine::experimental::EventEngine::ResolvedAddress") align 4 %0, i32 noundef %1) local_unnamed_addr #3 personality ptr @__gxx_personality_v0 {
  %3 = alloca %"class.grpc_event_engine::experimental::EventEngine::ResolvedAddress", align 4
  %4 = alloca %"class.absl::lts_20240722::log_internal::LogMessageFatal", align 8
  %5 = alloca %"class.absl::lts_20240722::log_internal::LogMessageFatal", align 8
  call void @llvm.lifetime.start.p0(i64 132, ptr nonnull %3) #25
  call void @llvm.memset.p0.i64(ptr noundef nonnull align 4 dereferenceable(132) %3, i8 0, i64 132, i1 false)
  %6 = call noundef ptr @_ZNK17grpc_event_engine12experimental11EventEngine15ResolvedAddress7addressEv(ptr noundef nonnull align 4 dereferenceable(132) %3)
  %.not.i.i = icmp slt i32 %1, 0
  br i1 %.not.i.i, label %9, label %7, !prof !19

7:                                                ; preds = %2
  %8 = icmp samesign ult i32 %1, 65536
  br i1 %8, label %15, label %19, !prof !21

9:                                                ; preds = %2
  %10 = sext i32 %1 to i64
  %11 = call noundef nonnull ptr @_ZN4absl12lts_2024072212log_internal17MakeCheckOpStringIllEEPNSt7__cxx1112basic_stringIcSt11char_traitsIcESaIcEEET_T0_PKc(i64 noundef %10, i64 noundef 0, ptr noundef nonnull @.str.2)
  call void @llvm.lifetime.start.p0(i64 16, ptr nonnull %4) #25
  %12 = load ptr, ptr %11, align 8, !tbaa !22
  %13 = getelementptr inbounds nuw i8, ptr %11, i64 8
  %14 = load i64, ptr %13, align 8, !tbaa !28
  call void @_ZN4absl12lts_2024072212log_internal15LogMessageFatalC1EPKciSt17basic_string_viewIcSt11char_traitsIcEE(ptr noundef nonnull align 8 dereferenceable(16) %4, ptr noundef nonnull @.str, i32 noundef 254, i64 %14, ptr %12) #26
  call void @_ZN4absl12lts_2024072212log_internal15LogMessageFatalD1Ev(ptr noundef nonnull align 8 dereferenceable(16) %4) #27
  unreachable

15:                                               ; preds = %7
  %16 = getelementptr inbounds nuw i8, ptr %6, i64 4
  call void @llvm.memset.p0.i64(ptr noundef nonnull align 4 dereferenceable(12) %16, i8 0, i64 12, i1 false)
  store i16 2, ptr %6, align 4, !tbaa !8
  %17 = trunc nuw i32 %1 to i16
  %rev.i = call noundef i16 @llvm.bswap.i16(i16 %17)
  %18 = getelementptr inbounds nuw i8, ptr %6, i64 2
  store i16 %rev.i, ptr %18, align 2, !tbaa !15
  call void @_ZN17grpc_event_engine12experimental11EventEngine15ResolvedAddressC1EPK8sockaddrj(ptr noundef nonnull align 4 dereferenceable(132) %0, ptr noundef nonnull %6, i32 noundef 16)
  call void @llvm.lifetime.end.p0(i64 132, ptr nonnull %3) #25
  ret void

19:                                               ; preds = %7
  %20 = zext nneg i32 %1 to i64
  %21 = call noundef nonnull ptr @_ZN4absl12lts_2024072212log_internal17MakeCheckOpStringIllEEPNSt7__cxx1112basic_stringIcSt11char_traitsIcESaIcEEET_T0_PKc(i64 noundef %20, i64 noundef 65536, ptr noundef nonnull @.str.3)
  call void @llvm.lifetime.start.p0(i64 16, ptr nonnull %5) #25
  %22 = load ptr, ptr %21, align 8, !tbaa !22
  %23 = getelementptr inbounds nuw i8, ptr %21, i64 8
  %24 = load i64, ptr %23, align 8, !tbaa !28
  call void @_ZN4absl12lts_2024072212log_internal15LogMessageFatalC1EPKciSt17basic_string_viewIcSt11char_traitsIcEE(ptr noundef nonnull align 8 dereferenceable(16) %5, ptr noundef nonnull @.str, i32 noundef 255, i64 %24, ptr %22) #26
  call void @_ZN4absl12lts_2024072212log_internal15LogMessageFatalD1Ev(ptr noundef nonnull align 8 dereferenceable(16) %5) #27
  unreachable
}